; Function Attrs: nofree norecurse nosync nounwind sspstrong memory(read, argmem: readwrite, inaccessiblemem: none) uwtable
define internal range(i32 -400, 4) i32 @mbc_case_fold(i32 %0, ptr noundef captures(none) %1, ptr noundef readnone captures(address) %2, ptr noundef captures(none) %3, ptr readnone captures(none) %4) #6 {
  %6 = load ptr, ptr %1, align 8, !tbaa !13
  %7 = load i8, ptr %6, align 1, !tbaa !6
  %8 = icmp sgt i8 %7, -1
  br i1 %8, label %9, label %15

9:                                                ; preds = %5
  %10 = zext nneg i8 %7 to i64
  %11 = getelementptr inbounds nuw [0 x i8], ptr @OnigEncAsciiToLowerCaseTable, i64 0, i64 %10
  %12 = load i8, ptr %11, align 1, !tbaa !6
  store i8 %12, ptr %3, align 1, !tbaa !6
  %13 = load ptr, ptr %1, align 8, !tbaa !13
  %14 = getelementptr inbounds nuw i8, ptr %13, i64 1
  br label %131

15:                                               ; preds = %5
  %16 = getelementptr inbounds nuw i8, ptr %6, i64 1
  %17 = zext i8 %7 to i64
  %18 = getelementptr inbounds nuw [256 x i8], ptr @trans, i64 0, i64 %17
  %19 = load i8, ptr %18, align 1, !tbaa !6
  %20 = sext i8 %19 to i64
  %21 = icmp slt i8 %19, 0
  br i1 %21, label %24, label %22

22:                                               ; preds = %15
  %23 = icmp eq ptr %16, %2
  br i1 %23, label %mbc_enc_len.exit.i, label %26

24:                                               ; preds = %15
  %25 = icmp eq i8 %19, -1
  br i1 %25, label %mbc_enc_len.exit.thread.i, label %mbc_enc_len.exit.thread27.i

26:                                               ; preds = %22
  %27 = getelementptr inbounds nuw i8, ptr %6, i64 2
  %28 = load i8, ptr %16, align 1, !tbaa !6
  %29 = zext i8 %28 to i64
  %30 = getelementptr inbounds nuw [3 x [256 x i8]], ptr @trans, i64 0, i64 %20, i64 %29
  %31 = load i8, ptr %30, align 1, !tbaa !6
  %32 = sext i8 %31 to i64
  %33 = icmp slt i8 %31, 0
  br i1 %33, label %34, label %37

34:                                               ; preds = %26
  %35 = icmp eq i8 %31, -1
  %36 = select i1 %35, i32 2, i32 -1
  br label %mbc_enc_len.exit.thread27.i

37:                                               ; preds = %26
  %38 = icmp eq ptr %27, %2
  br i1 %38, label %mbc_enc_len.exit.i, label %39

39:                                               ; preds = %37
  %40 = load i8, ptr %27, align 1, !tbaa !6
  %41 = zext i8 %40 to i64
  %42 = getelementptr inbounds nuw [3 x [256 x i8]], ptr @trans, i64 0, i64 %32, i64 %41
  %43 = load i8, ptr %42, align 1, !tbaa !6
  %44 = icmp eq i8 %43, -1
  %45 = select i1 %44, i32 3, i32 -1
  br label %mbc_enc_len.exit.thread27.i

mbc_enc_len.exit.thread.i:                        ; preds = %24
  %46 = zext i8 %7 to i32
  br label %mbc_to_code.exit

mbc_enc_len.exit.thread27.i:                      ; preds = %39, %34, %24
  %.0.i.ph.i = phi i32 [ %45, %39 ], [ %36, %34 ], [ -1, %24 ]
  %47 = zext i8 %7 to i32
  br label %.preheader.i

mbc_enc_len.exit.i:                               ; preds = %37, %22
  %.sink.i = phi i32 [ 0, %22 ], [ 1, %37 ]
  %48 = getelementptr inbounds nuw [256 x i32], ptr @EncLen_EUCJP, i64 0, i64 %17
  %49 = load i32, ptr %48, align 4, !tbaa !9
  %50 = sub nsw i32 %.sink.i, %49
  %51 = zext i8 %7 to i32
  %52 = icmp eq i32 %50, 1
  br i1 %52, label %mbc_to_code.exit, label %.preheader.i

.preheader.i:                                     ; preds = %mbc_enc_len.exit.i, %mbc_enc_len.exit.thread27.i
  %53 = phi i32 [ %47, %mbc_enc_len.exit.thread27.i ], [ %51, %mbc_enc_len.exit.i ]
  %.0.i29.i = phi i32 [ %.0.i.ph.i, %mbc_enc_len.exit.thread27.i ], [ %50, %mbc_enc_len.exit.i ]
  %54 = icmp sgt i32 %.0.i29.i, 1
  %.not22.i = icmp ult ptr %16, %2
  %or.cond23.i = select i1 %54, i1 %.not22.i, i1 false
  br i1 %or.cond23.i, label %.lr.ph.i, label %mbc_to_code.exit

.lr.ph.i:                                         ; preds = %.preheader.i, %.lr.ph.i
  %.01826.i = phi ptr [ %.018.i, %.lr.ph.i ], [ %16, %.preheader.i ]
  %.025.i = phi i32 [ %58, %.lr.ph.i ], [ %53, %.preheader.i ]
  %.01724.i = phi i32 [ %59, %.lr.ph.i ], [ 1, %.preheader.i ]
  %55 = load i8, ptr %.01826.i, align 1, !tbaa !6
  %56 = zext i8 %55 to i32
  %57 = shl i32 %.025.i, 8
  %58 = or disjoint i32 %57, %56
  %59 = add nuw nsw i32 %.01724.i, 1
  %.018.i = getelementptr inbounds nuw i8, ptr %.01826.i, i64 1
  %60 = icmp slt i32 %59, %.0.i29.i
  %.not.i = icmp ult ptr %.018.i, %2
  %or.cond.i = select i1 %60, i1 %.not.i, i1 false
  br i1 %or.cond.i, label %.lr.ph.i, label %mbc_to_code.exit, !llvm.loop !11

mbc_to_code.exit:                                 ; preds = %.lr.ph.i, %mbc_enc_len.exit.thread.i, %mbc_enc_len.exit.i, %.preheader.i
  %.016.i = phi i32 [ %51, %mbc_enc_len.exit.i ], [ %46, %mbc_enc_len.exit.thread.i ], [ %53, %.preheader.i ], [ %58, %.lr.ph.i ]
  %61 = add i32 %.016.i, -41921
  %62 = icmp ult i32 %61, 26
  br i1 %62, label %63, label %65

63:                                               ; preds = %mbc_to_code.exit
  %64 = or disjoint i32 %.016.i, 32
  br label %get_lower_case.exit

65:                                               ; preds = %mbc_to_code.exit
  %66 = add i32 %.016.i, -42657
  %67 = icmp ult i32 %66, 24
  br i1 %67, label %68, label %70

68:                                               ; preds = %65
  %69 = add nuw nsw i32 %.016.i, 32
  br label %get_lower_case.exit

70:                                               ; preds = %65
  %71 = add i32 %.016.i, -42913
  %72 = icmp ult i32 %71, 33
  %73 = add nuw nsw i32 %.016.i, 48
  %spec.select.i = select i1 %72, i32 %73, i32 %.016.i
  br label %get_lower_case.exit

get_lower_case.exit:                              ; preds = %63, %68, %70
  %.0.i18 = phi i32 [ %64, %63 ], [ %69, %68 ], [ %spec.select.i, %70 ]
  %74 = and i32 %.0.i18, 16711680
  %.not.i19 = icmp eq i32 %74, 0
  br i1 %.not.i19, label %78, label %75

75:                                               ; preds = %get_lower_case.exit
  %76 = lshr i32 %.0.i18, 16
  %77 = trunc i32 %76 to i8
  store i8 %77, ptr %3, align 1, !tbaa !6
  br label %78

78:                                               ; preds = %75, %get_lower_case.exit
  %.0.idx.i = phi i64 [ 1, %75 ], [ 0, %get_lower_case.exit ]
  %79 = and i32 %.0.i18, 65280
  %.not18.i = icmp eq i32 %79, 0
  br i1 %.not18.i, label %83, label %80

80:                                               ; preds = %78
  %.0.ptr.i = getelementptr inbounds nuw i8, ptr %3, i64 %.0.idx.i
  %81 = lshr i32 %.0.i18, 8
  %82 = trunc i32 %81 to i8
  %.0.add.i = add nuw nsw i64 %.0.idx.i, 1
  store i8 %82, ptr %.0.ptr.i, align 1, !tbaa !6
  br label %83

83:                                               ; preds = %80, %78
  %.1.idx.i = phi i64 [ %.0.add.i, %80 ], [ %.0.idx.i, %78 ]
  %.1.ptr.i = getelementptr inbounds nuw i8, ptr %3, i64 %.1.idx.i
  %84 = trunc i32 %.0.i18 to i8
  %.1.add.i = add nuw nsw i64 %.1.idx.i, 1
  store i8 %84, ptr %.1.ptr.i, align 1, !tbaa !6
  %85 = getelementptr inbounds nuw i8, ptr %3, i64 1
  %86 = load i8, ptr %3, align 1, !tbaa !6
  %87 = zext i8 %86 to i64
  %88 = getelementptr inbounds nuw [256 x i8], ptr @trans, i64 0, i64 %87
  %89 = load i8, ptr %88, align 1, !tbaa !6
  %90 = sext i8 %89 to i64
  %91 = icmp slt i8 %89, 0
  br i1 %91, label %92, label %95

92:                                               ; preds = %83
  %93 = icmp eq i8 %89, -1
  %94 = select i1 %93, i32 1, i32 -1
  br label %code_to_mbc.exit

95:                                               ; preds = %83
  %96 = icmp samesign eq i64 %.1.idx.i, 0
  br i1 %96, label %97, label %101

97:                                               ; preds = %95
  %98 = getelementptr inbounds nuw [256 x i32], ptr @EncLen_EUCJP, i64 0, i64 %87
  %99 = load i32, ptr %98, align 4, !tbaa !9
  %100 = sub nsw i32 0, %99
  br label %code_to_mbc.exit

101:                                              ; preds = %95
  %102 = getelementptr inbounds nuw i8, ptr %3, i64 2
  %103 = load i8, ptr %85, align 1, !tbaa !6
  %104 = zext i8 %103 to i64
  %105 = getelementptr inbounds nuw [3 x [256 x i8]], ptr @trans, i64 0, i64 %90, i64 %104
  %106 = load i8, ptr %105, align 1, !tbaa !6
  %107 = sext i8 %106 to i64
  %108 = icmp slt i8 %106, 0
  br i1 %108, label %109, label %112

109:                                              ; preds = %101
  %110 = icmp eq i8 %106, -1
  %111 = select i1 %110, i32 2, i32 -1
  br label %code_to_mbc.exit

112:                                              ; preds = %101
  %113 = icmp eq i64 %.1.add.i, 2
  br i1 %113, label %114, label %118

114:                                              ; preds = %112
  %115 = getelementptr inbounds nuw [256 x i32], ptr @EncLen_EUCJP, i64 0, i64 %87
  %116 = load i32, ptr %115, align 4, !tbaa !9
  %117 = sub nsw i32 1, %116
  br label %code_to_mbc.exit

118:                                              ; preds = %112
  %119 = load i8, ptr %102, align 1, !tbaa !6
  %120 = zext i8 %119 to i64
  %121 = getelementptr inbounds nuw [3 x [256 x i8]], ptr @trans, i64 0, i64 %107, i64 %120
  %122 = load i8, ptr %121, align 1, !tbaa !6
  %123 = icmp eq i8 %122, -1
  %124 = select i1 %123, i32 3, i32 -1
  br label %code_to_mbc.exit

code_to_mbc.exit:                                 ; preds = %92, %97, %109, %114, %118
  %.0.i.i = phi i32 [ %94, %92 ], [ %100, %97 ], [ %111, %109 ], [ %117, %114 ], [ %124, %118 ]
  %125 = sext i32 %.0.i.i to i64
  %.not19.i = icmp eq i64 %.1.add.i, %125
  %126 = trunc nuw nsw i64 %.1.add.i to i32
  %.016.i21 = select i1 %.not19.i, i32 %126, i32 -400
  %127 = icmp eq i32 %.016.i21, -400
  %spec.store.select = select i1 %127, i32 1, i32 %.016.i21
  %128 = load ptr, ptr %1, align 8, !tbaa !13
  %129 = sext i32 %spec.store.select to i64
  %130 = getelementptr inbounds i8, ptr %128, i64 %129
  br label %131

131:                                              ; preds = %code_to_mbc.exit, %9
  %storemerge = phi ptr [ %130, %code_to_mbc.exit ], [ %14, %9 ]
  %.0 = phi i32 [ %spec.store.select, %code_to_mbc.exit ], [ 1, %9 ]
  store ptr %storemerge, ptr %1, align 8, !tbaa !13
  ret i32 %.0
}